; Function Attrs: mustprogress uwtable
define void @_ZN5faiss18IndexIVFPQFastScanC2Ev(ptr noundef nonnull align 8 dereferenceable(568) %0) unnamed_addr #2 align 2 personality ptr @__gxx_personality_v0 {
  tail call void @_ZN5faiss16IndexIVFFastScanC2Ev(ptr noundef nonnull align 8 dereferenceable(328) %0)
  store ptr getelementptr inbounds ({ [37 x ptr], [6 x ptr] }, ptr @_ZTVN5faiss18IndexIVFPQFastScanE, i64 0, i32 0, i64 2), ptr %0, align 8
  %2 = getelementptr inbounds i8, ptr %0, i64 40
  store ptr getelementptr inbounds ({ [37 x ptr], [6 x ptr] }, ptr @_ZTVN5faiss18IndexIVFPQFastScanE, i64 0, i32 1, i64 2), ptr %2, align 8
  %3 = getelementptr inbounds i8, ptr %0, i64 328
  invoke void @_ZN5faiss16ProductQuantizerC1Ev(ptr noundef nonnull align 8 dereferenceable(208) %3)
          to label %4 unwind label %10

4:                                                ; preds = %1
  %5 = getelementptr inbounds i8, ptr %0, i64 536
  store i32 0, ptr %5, align 8
  %6 = getelementptr inbounds i8, ptr %0, i64 544
  tail call void @llvm.memset.p0.i64(ptr noundef nonnull align 8 dereferenceable(24) %6, i8 0, i64 24, i1 false)
  %7 = getelementptr inbounds i8, ptr %0, i64 256
  store i8 0, ptr %7, align 8
  %8 = getelementptr inbounds i8, ptr %0, i64 260
  store i32 0, ptr %8, align 4
  %9 = getelementptr inbounds i8, ptr %0, i64 288
  store i64 0, ptr %9, align 8
  ret void

10:                                               ; preds = %1
  %11 = landingpad { ptr, i32 }
          cleanup
  tail call void @_ZN5faiss16IndexIVFFastScanD2Ev(ptr noundef nonnull align 8 dereferenceable(328) %0) #18
  resume { ptr, i32 } %11
}